; Function Attrs: nounwind uwtable
define dso_local i64 @hypothetical_cume_dist_final(ptr noundef readonly captures(none) %0) local_unnamed_addr #0 {
  %2 = alloca i64, align 8
  call void @llvm.lifetime.start.p0(i64 8, ptr nonnull %2) #10
  %3 = call fastcc i64 @hypothetical_rank_common(ptr noundef %0, i32 noundef 1, ptr noundef %2)
  %4 = sitofp i64 %3 to double
  %5 = load i64, ptr %2, align 8
  %6 = add i64 %5, 1
  %7 = sitofp i64 %6 to double
  %8 = fdiv double %4, %7
  %9 = bitcast double %8 to i64
  call void @llvm.lifetime.end.p0(i64 8, ptr nonnull %2) #10
  ret i64 %9
}